target datalayout = "e-m:e-p270:32:32-p271:32:32-p272:64:64-i64:64-i128:128-f80:128-n8:16:32:64-S128"
target triple = "x86_64-pc-linux-gnu"

%struct.outer_variable_list = type { i64, [1 x %struct.outer_variable_pair] }
%struct.outer_variable_pair = type { i64, i64, i64 }

; Function Attrs: nounwind sspstrong uwtable
define internal i32 @store_outer_variable(i64 noundef %0, i64 noundef %1, ptr noundef %2) #0 {
  %4 = alloca i64, align 8
  %5 = alloca i64, align 8
  %6 = alloca ptr, align 8
  %7 = alloca ptr, align 8
  %8 = alloca ptr, align 8
  store i64 %0, ptr %4, align 8, !tbaa !7
  store i64 %1, ptr %5, align 8, !tbaa !7
  store ptr %2, ptr %6, align 8, !tbaa !152
  call void @llvm.lifetime.start.p0(i64 8, ptr %7) #31
  %9 = load ptr, ptr %6, align 8, !tbaa !152
  store ptr %9, ptr %7, align 8, !tbaa !1320
  call void @llvm.lifetime.start.p0(i64 8, ptr %8) #31
  %10 = load ptr, ptr %7, align 8, !tbaa !1320
  %11 = getelementptr inbounds nuw %struct.outer_variable_list, ptr %10, i32 0, i32 1
  %12 = load ptr, ptr %7, align 8, !tbaa !1320
  %13 = getelementptr inbounds nuw %struct.outer_variable_list, ptr %12, i32 0, i32 0
  %14 = load i64, ptr %13, align 8, !tbaa !1322
  %15 = add i64 %14, 1
  store i64 %15, ptr %13, align 8, !tbaa !1322
  %16 = getelementptr [1 x %struct.outer_variable_pair], ptr %11, i64 0, i64 %14
  store ptr %16, ptr %8, align 8, !tbaa !1330
  %17 = load i64, ptr %4, align 8, !tbaa !7
  %18 = load ptr, ptr %8, align 8, !tbaa !1330
  %19 = getelementptr inbounds nuw %struct.outer_variable_pair, ptr %18, i32 0, i32 0
  store i64 %17, ptr %19, align 8, !tbaa !1324
  %20 = load i64, ptr %4, align 8, !tbaa !7
  %21 = call i64 @rb_id2str(i64 noundef %20)
  %22 = load ptr, ptr %8, align 8, !tbaa !1330
  %23 = getelementptr inbounds nuw %struct.outer_variable_pair, ptr %22, i32 0, i32 1
  store i64 %21, ptr %23, align 8, !tbaa !1332
  %24 = load i64, ptr %5, align 8, !tbaa !7
  %25 = load ptr, ptr %8, align 8, !tbaa !1330
  %26 = getelementptr inbounds nuw %struct.outer_variable_pair, ptr %25, i32 0, i32 2
  store i64 %24, ptr %26, align 8, !tbaa !1326
  call void @llvm.lifetime.end.p0(i64 8, ptr %8) #31
  call void @llvm.lifetime.end.p0(i64 8, ptr %7) #31
  ret i32 0
}