; Function Attrs: nounwind sspstrong uwtable
define internal noundef i32 @store_outer_variable(i64 noundef %0, i64 noundef %1, ptr noundef captures(none) %2) #1 {
  %4 = getelementptr inbounds nuw i8, ptr %2, i64 8
  %5 = load i64, ptr %2, align 8, !tbaa !1110
  %6 = add i64 %5, 1
  store i64 %6, ptr %2, align 8, !tbaa !1110
  %7 = getelementptr [1 x %struct.outer_variable_pair], ptr %4, i64 0, i64 %5
  store i64 %0, ptr %7, align 8, !tbaa !1112
  %8 = tail call i64 @rb_id2str(i64 noundef %0) #38
  %9 = getelementptr inbounds nuw i8, ptr %7, i64 8
  store i64 %8, ptr %9, align 8, !tbaa !1116
  %10 = getelementptr inbounds nuw i8, ptr %7, i64 16
  store i64 %1, ptr %10, align 8, !tbaa !1114
  ret i32 0
}